target datalayout = "e-m:e-p270:32:32-p271:32:32-p272:64:64-i64:64-i128:128-f80:128-n8:16:32:64-S128"
target triple = "x86_64-pc-linux-gnu"

; Function Attrs: nounwind willreturn memory(none) uwtable
define dso_local signext i16 @swap_int16(i16 noundef signext %0) #8 {
  %2 = alloca i16, align 2
  store i16 %0, ptr %2, align 2, !tbaa !65
  %3 = load i16, ptr %2, align 2, !tbaa !65
  %4 = sext i16 %3 to i32
  %5 = shl i32 %4, 8
  %6 = load i16, ptr %2, align 2, !tbaa !65
  %7 = sext i16 %6 to i32
  %8 = ashr i32 %7, 8
  %9 = and i32 %8, 255
  %10 = or i32 %5, %9
  %11 = trunc i32 %10 to i16
  ret i16 %11
}