; Function Attrs: mustprogress nofree norecurse nosync nounwind willreturn memory(none) uwtable
define dso_local signext i16 @swap_int16(i16 noundef signext %0) local_unnamed_addr #11 {
  %2 = sext i16 %0 to i32
  %3 = shl nsw i32 %2, 8
  %4 = lshr i32 %2, 8
  %5 = and i32 %4, 255
  %6 = or disjoint i32 %5, %3
  %7 = trunc i32 %6 to i16
  ret i16 %7
}